target datalayout = "e-m:e-p270:32:32-p271:32:32-p272:64:64-i64:64-i128:128-f80:128-n8:16:32:64-S128"
target triple = "x86_64-pc-linux-gnu"

%"struct.benchmark::BenchmarkReporter::Context" = type { ptr, ptr, i64 }

; Function Attrs: mustprogress uwtable
define void @_ZN9benchmark17BenchmarkReporter7ContextC2Ev(ptr noundef nonnull align 8 dereferenceable(24) %0) unnamed_addr #6 align 2 {
  %2 = alloca ptr, align 8
  store ptr %0, ptr %2, align 8, !tbaa !17
  %3 = load ptr, ptr %2, align 8
  %4 = getelementptr inbounds nuw %"struct.benchmark::BenchmarkReporter::Context", ptr %3, i32 0, i32 0
  %5 = call noundef nonnull align 8 dereferenceable(64) ptr @_ZN9benchmark7CPUInfo3GetEv()
  store ptr %5, ptr %4, align 8, !tbaa !26
  %6 = getelementptr inbounds nuw %"struct.benchmark::BenchmarkReporter::Context", ptr %3, i32 0, i32 1
  %7 = call noundef nonnull align 8 dereferenceable(32) ptr @_ZN9benchmark10SystemInfo3GetEv()
  store ptr %7, ptr %6, align 8, !tbaa !82
  %8 = getelementptr inbounds nuw %"struct.benchmark::BenchmarkReporter::Context", ptr %3, i32 0, i32 2
  store i64 0, ptr %8, align 8, !tbaa !83
  ret void
}