; Function Attrs: mustprogress uwtable
define void @_ZN9benchmark17BenchmarkReporter7ContextC2Ev(ptr noundef nonnull writeonly align 8 captures(none) dereferenceable(24) initializes((0, 24)) %0) unnamed_addr #7 align 2 {
  %2 = tail call noundef nonnull align 8 dereferenceable(64) ptr @_ZN9benchmark7CPUInfo3GetEv()
  store ptr %2, ptr %0, align 8, !tbaa !69
  %3 = getelementptr inbounds nuw i8, ptr %0, i64 8
  %4 = tail call noundef nonnull align 8 dereferenceable(32) ptr @_ZN9benchmark10SystemInfo3GetEv()
  store ptr %4, ptr %3, align 8, !tbaa !70
  %5 = getelementptr inbounds nuw i8, ptr %0, i64 16
  store i64 0, ptr %5, align 8, !tbaa !71
  ret void
}